; Function Attrs: mustprogress nounwind uwtable
define hidden noundef ptr @_ZN8GraphKit11access_loadEP4NodePK4Type9BasicTypem(ptr noundef nonnull align 8 dereferenceable(84) %0, ptr noundef %1, ptr noundef %2, i8 noundef zeroext %3, i64 noundef %4) local_unnamed_addr #0 align 2 {
  %6 = alloca %class.C2AccessValuePtr, align 8
  %7 = alloca %class.C2ParseAccess, align 8
  %8 = getelementptr inbounds i8, ptr %0, i64 40
  %9 = load ptr, ptr %8, align 8
  %10 = icmp eq ptr %9, null
  br i1 %10, label %._ZN8GraphKit7stoppedEv.exit.thread_crit_edge, label %_ZN8GraphKit7stoppedEv.exit

._ZN8GraphKit7stoppedEv.exit.thread_crit_edge:    ; preds = %5
  %.phi.trans.insert = getelementptr inbounds i8, ptr %0, i64 16
  %.pre = load ptr, ptr %.phi.trans.insert, align 8
  %.phi.trans.insert8 = getelementptr inbounds i8, ptr %.pre, i64 744
  %.pre9 = load ptr, ptr %.phi.trans.insert8, align 8
  br label %_ZN8GraphKit7stoppedEv.exit.thread

_ZN8GraphKit7stoppedEv.exit:                      ; preds = %5
  %11 = getelementptr inbounds i8, ptr %9, i64 8
  %12 = load ptr, ptr %11, align 8
  %13 = load ptr, ptr %12, align 8
  %14 = getelementptr inbounds i8, ptr %0, i64 16
  %15 = load ptr, ptr %14, align 8
  %16 = getelementptr inbounds i8, ptr %15, i64 744
  %17 = load ptr, ptr %16, align 8
  %18 = icmp eq ptr %13, %17
  br i1 %18, label %_ZN8GraphKit7stoppedEv.exit.thread, label %19

19:                                               ; preds = %_ZN8GraphKit7stoppedEv.exit
  %20 = load ptr, ptr %1, align 8
  %21 = getelementptr inbounds i8, ptr %20, i64 40
  %22 = load ptr, ptr %21, align 8
  %23 = tail call noundef ptr %22(ptr noundef nonnull align 8 dereferenceable(52) %1) #13
  store ptr %1, ptr %6, align 8
  %24 = getelementptr inbounds i8, ptr %6, i64 8
  store ptr %23, ptr %24, align 8
  %25 = or i64 %4, 274877906944
  %26 = getelementptr inbounds i8, ptr %7, i64 8
  store i64 %25, ptr %26, align 8
  %27 = getelementptr inbounds i8, ptr %7, i64 16
  store i8 %3, ptr %27, align 8
  %28 = getelementptr inbounds i8, ptr %7, i64 24
  store ptr null, ptr %28, align 8
  %29 = getelementptr inbounds i8, ptr %7, i64 32
  store ptr %6, ptr %29, align 8
  %30 = getelementptr inbounds i8, ptr %7, i64 40
  store ptr null, ptr %30, align 8
  %31 = getelementptr inbounds i8, ptr %7, i64 48
  store i8 0, ptr %31, align 8
  store ptr getelementptr inbounds inrange(-16, 32) (i8, ptr @_ZTV13C2ParseAccess, i64 16), ptr %7, align 8
  %32 = getelementptr inbounds i8, ptr %7, i64 56
  store ptr %0, ptr %32, align 8
  call void @_ZN8C2Access16fixup_decoratorsEv(ptr noundef nonnull align 8 dereferenceable(49) %7) #13
  %33 = load i64, ptr %26, align 8
  %34 = and i64 %33, 2048
  %.not = icmp eq i64 %34, 0
  %35 = getelementptr inbounds i8, ptr %0, i64 72
  %36 = load ptr, ptr %35, align 8
  br i1 %.not, label %39, label %37

37:                                               ; preds = %19
  %38 = call noundef ptr @_ZNK12BarrierSetC27load_atER8C2AccessPK4Type(ptr noundef nonnull align 8 dereferenceable(8) %36, ptr noundef nonnull align 8 dereferenceable(49) %7, ptr noundef %2) #13
  br label %_ZN8GraphKit7stoppedEv.exit.thread

39:                                               ; preds = %19
  %40 = load ptr, ptr %36, align 8
  %41 = getelementptr inbounds i8, ptr %40, i64 64
  %42 = load ptr, ptr %41, align 8
  %43 = call noundef ptr %42(ptr noundef nonnull align 8 dereferenceable(8) %36, ptr noundef nonnull align 8 dereferenceable(49) %7, ptr noundef %2) #13
  br label %_ZN8GraphKit7stoppedEv.exit.thread

_ZN8GraphKit7stoppedEv.exit.thread:               ; preds = %_ZN8GraphKit7stoppedEv.exit, %._ZN8GraphKit7stoppedEv.exit.thread_crit_edge, %39, %37
  %.0 = phi ptr [ %38, %37 ], [ %43, %39 ], [ %.pre9, %._ZN8GraphKit7stoppedEv.exit.thread_crit_edge ], [ %17, %_ZN8GraphKit7stoppedEv.exit ]
  ret ptr %.0
}